; Function Attrs: nofree null_pointer_is_valid sspstrong uwtable
define internal fastcc range(i32 -1, 1) i32 @gz_next2(ptr noundef captures(none) %0, ptr noundef writeonly captures(none) %1) unnamed_addr #12 {
  %3 = getelementptr inbounds nuw i8, ptr %0, i64 48
  %4 = load i32, ptr %3, align 8
  %5 = icmp eq i32 %4, 0
  br i1 %5, label %6, label %fill_in_buffer.exit.thread31

6:                                                ; preds = %2
  %7 = getelementptr inbounds nuw i8, ptr %0, i64 132
  %8 = load i32, ptr %7, align 4
  %.not.i = icmp eq i32 %8, 0
  br i1 %.not.i, label %9, label %fill_in_buffer.exit.thread.thread

9:                                                ; preds = %6
  %10 = getelementptr inbounds nuw i8, ptr %0, i64 80
  %11 = load i8, ptr %10, align 8, !range !9, !noundef !10
  %12 = trunc nuw i8 %11 to i1
  br i1 %12, label %fill_in_buffer.exit.thread.thread, label %13

13:                                               ; preds = %9
  %14 = getelementptr inbounds nuw i8, ptr %0, i64 32
  %15 = getelementptr inbounds nuw i8, ptr %0, i64 24
  %16 = load i32, ptr %15, align 8
  %17 = getelementptr inbounds nuw i8, ptr %0, i64 40
  %18 = load ptr, ptr %17, align 8
  %19 = load ptr, ptr %14, align 8
  %20 = ptrtoint ptr %18 to i64
  %21 = ptrtoint ptr %19 to i64
  %.neg.i.i = sub i64 %21, %20
  %.neg25.i.i = trunc i64 %.neg.i.i to i32
  %22 = add i32 %16, %.neg25.i.i
  %23 = icmp eq i32 %22, 0
  br i1 %23, label %24, label %25

24:                                               ; preds = %13
  store ptr %19, ptr %17, align 8
  store i32 0, ptr %3, align 8
  br label %25

25:                                               ; preds = %24, %13
  %.022.i.i = phi i32 [ %16, %24 ], [ %22, %13 ]
  %.021.i.i = phi ptr [ %19, %24 ], [ %18, %13 ]
  %26 = load i32, ptr %0, align 8
  %27 = zext i32 %.022.i.i to i64
  %28 = tail call i64 @read(i32 noundef %26, ptr noundef %.021.i.i, i64 noundef %27)
  %29 = icmp slt i64 %28, 0
  br i1 %29, label %buf_read.exit.thread.i, label %33

buf_read.exit.thread.i:                           ; preds = %25
  %30 = tail call ptr @__errno_location() #23
  %31 = load i32, ptr %30, align 4
  store i32 %31, ptr %7, align 4
  %32 = getelementptr inbounds nuw i8, ptr %0, i64 136
  store ptr null, ptr %32, align 8
  %.pre = load i32, ptr %3, align 8
  br label %fill_in_buffer.exit.thread

33:                                               ; preds = %25
  %34 = icmp eq i64 %28, 0
  br i1 %34, label %35, label %fill_in_buffer.exit

35:                                               ; preds = %33
  store i8 1, ptr %10, align 8
  br label %fill_in_buffer.exit

fill_in_buffer.exit:                              ; preds = %33, %35
  %36 = getelementptr inbounds nuw i8, ptr %0, i64 8
  %37 = load i64, ptr %36, align 8
  %38 = add i64 %37, %28
  store i64 %38, ptr %36, align 8
  %39 = trunc i64 %28 to i32
  %40 = load i32, ptr %3, align 8
  %41 = add i32 %40, %39
  store i32 %41, ptr %3, align 8
  %42 = icmp eq i32 %41, 0
  br i1 %42, label %fill_in_buffer.exit.thread.thread, label %fill_in_buffer.exit.thread31

fill_in_buffer.exit.thread31:                     ; preds = %2, %fill_in_buffer.exit
  %43 = phi i32 [ %41, %fill_in_buffer.exit ], [ %4, %2 ]
  %44 = add i32 %43, -1
  store i32 %44, ptr %3, align 8
  %45 = getelementptr inbounds nuw i8, ptr %0, i64 40
  %46 = load ptr, ptr %45, align 8
  %47 = getelementptr i8, ptr %46, i64 1
  store ptr %47, ptr %45, align 8
  %48 = load i8, ptr %46, align 1
  %49 = zext i8 %48 to i16
  br label %fill_in_buffer.exit.thread

fill_in_buffer.exit.thread:                       ; preds = %buf_read.exit.thread.i, %fill_in_buffer.exit.thread31
  %.pr33 = phi i32 [ %44, %fill_in_buffer.exit.thread31 ], [ %.pre, %buf_read.exit.thread.i ]
  %50 = phi i16 [ %49, %fill_in_buffer.exit.thread31 ], [ -1, %buf_read.exit.thread.i ]
  %51 = icmp eq i32 %.pr33, 0
  br i1 %51, label %fill_in_buffer.exit.thread.thread, label %fill_in_buffer.exit29.thread34

fill_in_buffer.exit.thread.thread:                ; preds = %9, %6, %fill_in_buffer.exit, %fill_in_buffer.exit.thread
  %52 = phi i16 [ %50, %fill_in_buffer.exit.thread ], [ -1, %fill_in_buffer.exit ], [ -1, %6 ], [ -1, %9 ]
  %53 = getelementptr inbounds nuw i8, ptr %0, i64 132
  %54 = load i32, ptr %53, align 4
  %.not.i21 = icmp eq i32 %54, 0
  br i1 %.not.i21, label %55, label %.thread.thread

55:                                               ; preds = %fill_in_buffer.exit.thread.thread
  %56 = getelementptr inbounds nuw i8, ptr %0, i64 80
  %57 = load i8, ptr %56, align 8, !range !9, !noundef !10
  %58 = trunc nuw i8 %57 to i1
  br i1 %58, label %fill_in_buffer.exit29..thread_crit_edge, label %59

59:                                               ; preds = %55
  %60 = getelementptr inbounds nuw i8, ptr %0, i64 32
  %61 = getelementptr inbounds nuw i8, ptr %0, i64 24
  %62 = load i32, ptr %61, align 8
  %63 = getelementptr inbounds nuw i8, ptr %0, i64 40
  %64 = load ptr, ptr %63, align 8
  %65 = load ptr, ptr %60, align 8
  %66 = ptrtoint ptr %64 to i64
  %67 = ptrtoint ptr %65 to i64
  %.neg.i.i23 = sub i64 %67, %66
  %.neg25.i.i24 = trunc i64 %.neg.i.i23 to i32
  %68 = add i32 %62, %.neg25.i.i24
  %69 = icmp eq i32 %68, 0
  br i1 %69, label %70, label %71

70:                                               ; preds = %59
  store ptr %65, ptr %63, align 8
  store i32 0, ptr %3, align 8
  br label %71

71:                                               ; preds = %70, %59
  %.022.i.i25 = phi i32 [ %62, %70 ], [ %68, %59 ]
  %.021.i.i26 = phi ptr [ %65, %70 ], [ %64, %59 ]
  %72 = load i32, ptr %0, align 8
  %73 = zext i32 %.022.i.i25 to i64
  %74 = tail call i64 @read(i32 noundef %72, ptr noundef %.021.i.i26, i64 noundef %73)
  %75 = icmp slt i64 %74, 0
  br i1 %75, label %buf_read.exit.thread.i28, label %79

buf_read.exit.thread.i28:                         ; preds = %71
  %76 = tail call ptr @__errno_location() #23
  %77 = load i32, ptr %76, align 4
  store i32 %77, ptr %53, align 4
  %78 = getelementptr inbounds nuw i8, ptr %0, i64 136
  store ptr null, ptr %78, align 8
  br label %.thread

79:                                               ; preds = %71
  %80 = icmp eq i64 %74, 0
  br i1 %80, label %81, label %fill_in_buffer.exit29

81:                                               ; preds = %79
  store i8 1, ptr %56, align 8
  br label %fill_in_buffer.exit29

fill_in_buffer.exit29:                            ; preds = %79, %81
  %82 = getelementptr inbounds nuw i8, ptr %0, i64 8
  %83 = load i64, ptr %82, align 8
  %84 = add i64 %83, %74
  store i64 %84, ptr %82, align 8
  %85 = trunc i64 %74 to i32
  %86 = load i32, ptr %3, align 8
  %87 = add i32 %86, %85
  store i32 %87, ptr %3, align 8
  %88 = icmp eq i32 %87, 0
  br i1 %88, label %fill_in_buffer.exit29..thread_crit_edge, label %fill_in_buffer.exit29.thread34

fill_in_buffer.exit29..thread_crit_edge:          ; preds = %55, %fill_in_buffer.exit29
  %.pre35 = load i32, ptr %53, align 4
  br label %.thread

fill_in_buffer.exit29.thread34:                   ; preds = %fill_in_buffer.exit.thread, %fill_in_buffer.exit29
  %89 = phi i16 [ %52, %fill_in_buffer.exit29 ], [ %50, %fill_in_buffer.exit.thread ]
  %90 = phi i32 [ %87, %fill_in_buffer.exit29 ], [ %.pr33, %fill_in_buffer.exit.thread ]
  %91 = add i32 %90, -1
  store i32 %91, ptr %3, align 8
  %92 = getelementptr inbounds nuw i8, ptr %0, i64 40
  %93 = load ptr, ptr %92, align 8
  %94 = getelementptr i8, ptr %93, i64 1
  store ptr %94, ptr %92, align 8
  %95 = load i8, ptr %93, align 1
  %96 = zext i8 %95 to i16
  %97 = shl nuw i16 %96, 8
  %98 = add i16 %97, %89
  store i16 %98, ptr %1, align 2
  br label %.thread.thread

.thread:                                          ; preds = %fill_in_buffer.exit29..thread_crit_edge, %buf_read.exit.thread.i28
  %99 = phi i32 [ %.pre35, %fill_in_buffer.exit29..thread_crit_edge ], [ %77, %buf_read.exit.thread.i28 ]
  %100 = icmp eq i32 %99, 0
  br i1 %100, label %101, label %.thread.thread

101:                                              ; preds = %.thread
  store i32 -12, ptr %53, align 4
  %102 = getelementptr inbounds nuw i8, ptr %0, i64 136
  store ptr null, ptr %102, align 8
  br label %.thread.thread

.thread.thread:                                   ; preds = %fill_in_buffer.exit.thread.thread, %.thread, %101, %fill_in_buffer.exit29.thread34
  %.0 = phi i32 [ 0, %fill_in_buffer.exit29.thread34 ], [ -1, %101 ], [ -1, %.thread ], [ -1, %fill_in_buffer.exit.thread.thread ]
  ret i32 %.0
}